target datalayout = "e-m:e-p270:32:32-p271:32:32-p272:64:64-i64:64-i128:128-f80:128-n8:16:32:64-S128"
target triple = "x86_64-pc-linux-gnu"

%struct.VP8LBitEntropy = type { i64, i32, i32, i32, i32 }

; Function Attrs: inlinehint nounwind uwtable
define internal i64 @DivRound(i64 noundef %0, i64 noundef %1) #3 {
  %3 = alloca i64, align 8
  %4 = alloca i64, align 8
  store i64 %0, ptr %3, align 8, !tbaa !30
  store i64 %1, ptr %4, align 8, !tbaa !30
  %5 = load i64, ptr %3, align 8, !tbaa !30
  %6 = icmp slt i64 %5, 0
  %7 = zext i1 %6 to i32
  %8 = load i64, ptr %4, align 8, !tbaa !30
  %9 = icmp slt i64 %8, 0
  %10 = zext i1 %9 to i32
  %11 = icmp eq i32 %7, %10
  br i1 %11, label %12, label %19

12:                                               ; preds = %2
  %13 = load i64, ptr %3, align 8, !tbaa !30
  %14 = load i64, ptr %4, align 8, !tbaa !30
  %15 = sdiv i64 %14, 2
  %16 = add nsw i64 %13, %15
  %17 = load i64, ptr %4, align 8, !tbaa !30
  %18 = sdiv i64 %16, %17
  br label %26

19:                                               ; preds = %2
  %20 = load i64, ptr %3, align 8, !tbaa !30
  %21 = load i64, ptr %4, align 8, !tbaa !30
  %22 = sdiv i64 %21, 2
  %23 = sub nsw i64 %20, %22
  %24 = load i64, ptr %4, align 8, !tbaa !30
  %25 = sdiv i64 %23, %24
  br label %26

26:                                               ; preds = %19, %12
  %27 = phi i64 [ %18, %12 ], [ %25, %19 ]
  ret i64 %27
}

; Function Attrs: inlinehint nounwind uwtable
define internal i64 @BitsEntropyRefine(ptr noundef %0) #3 {
  %2 = alloca i64, align 8
  %3 = alloca ptr, align 8
  %4 = alloca i64, align 8
  %5 = alloca i32, align 4
  %6 = alloca i64, align 8
  store ptr %0, ptr %3, align 8, !tbaa !3
  call void @llvm.lifetime.start.p0(i64 8, ptr %4) #7
  %7 = load ptr, ptr %3, align 8, !tbaa !3
  %8 = getelementptr inbounds nuw %struct.VP8LBitEntropy, ptr %7, i32 0, i32 2
  %9 = load i32, ptr %8, align 4, !tbaa !48
  %10 = icmp slt i32 %9, 5
  br i1 %10, label %11, label %42

11:                                               ; preds = %1
  %12 = load ptr, ptr %3, align 8, !tbaa !3
  %13 = getelementptr inbounds nuw %struct.VP8LBitEntropy, ptr %12, i32 0, i32 2
  %14 = load i32, ptr %13, align 4, !tbaa !48
  %15 = icmp sle i32 %14, 1
  br i1 %15, label %16, label %17

16:                                               ; preds = %11
  store i64 0, ptr %2, align 8
  store i32 1, ptr %5, align 4
  br label %78

17:                                               ; preds = %11
  %18 = load ptr, ptr %3, align 8, !tbaa !3
  %19 = getelementptr inbounds nuw %struct.VP8LBitEntropy, ptr %18, i32 0, i32 2
  %20 = load i32, ptr %19, align 4, !tbaa !48
  %21 = icmp eq i32 %20, 2
  br i1 %21, label %22, label %34

22:                                               ; preds = %17
  %23 = load ptr, ptr %3, align 8, !tbaa !3
  %24 = getelementptr inbounds nuw %struct.VP8LBitEntropy, ptr %23, i32 0, i32 1
  %25 = load i32, ptr %24, align 8, !tbaa !50
  %26 = zext i32 %25 to i64
  %27 = shl i64 %26, 23
  %28 = mul i64 99, %27
  %29 = load ptr, ptr %3, align 8, !tbaa !3
  %30 = getelementptr inbounds nuw %struct.VP8LBitEntropy, ptr %29, i32 0, i32 0
  %31 = load i64, ptr %30, align 8, !tbaa !51
  %32 = add i64 %28, %31
  %33 = call i64 @DivRound(i64 noundef %32, i64 noundef 100)
  store i64 %33, ptr %2, align 8
  store i32 1, ptr %5, align 4
  br label %78

34:                                               ; preds = %17
  %35 = load ptr, ptr %3, align 8, !tbaa !3
  %36 = getelementptr inbounds nuw %struct.VP8LBitEntropy, ptr %35, i32 0, i32 2
  %37 = load i32, ptr %36, align 4, !tbaa !48
  %38 = icmp eq i32 %37, 3
  br i1 %38, label %39, label %40

39:                                               ; preds = %34
  store i64 950, ptr %4, align 8, !tbaa !30
  br label %41

40:                                               ; preds = %34
  store i64 700, ptr %4, align 8, !tbaa !30
  br label %41

41:                                               ; preds = %40, %39
  br label %43

42:                                               ; preds = %1
  store i64 627, ptr %4, align 8, !tbaa !30
  br label %43

43:                                               ; preds = %42, %41
  call void @llvm.lifetime.start.p0(i64 8, ptr %6) #7
  %44 = load ptr, ptr %3, align 8, !tbaa !3
  %45 = getelementptr inbounds nuw %struct.VP8LBitEntropy, ptr %44, i32 0, i32 1
  %46 = load i32, ptr %45, align 8, !tbaa !50
  %47 = mul i32 2, %46
  %48 = load ptr, ptr %3, align 8, !tbaa !3
  %49 = getelementptr inbounds nuw %struct.VP8LBitEntropy, ptr %48, i32 0, i32 3
  %50 = load i32, ptr %49, align 8, !tbaa !52
  %51 = sub i32 %47, %50
  %52 = zext i32 %51 to i64
  %53 = shl i64 %52, 23
  store i64 %53, ptr %6, align 8, !tbaa !30
  %54 = load i64, ptr %4, align 8, !tbaa !30
  %55 = load i64, ptr %6, align 8, !tbaa !30
  %56 = mul i64 %54, %55
  %57 = load i64, ptr %4, align 8, !tbaa !30
  %58 = sub i64 1000, %57
  %59 = load ptr, ptr %3, align 8, !tbaa !3
  %60 = getelementptr inbounds nuw %struct.VP8LBitEntropy, ptr %59, i32 0, i32 0
  %61 = load i64, ptr %60, align 8, !tbaa !51
  %62 = mul i64 %58, %61
  %63 = add i64 %56, %62
  %64 = call i64 @DivRound(i64 noundef %63, i64 noundef 1000)
  store i64 %64, ptr %6, align 8, !tbaa !30
  %65 = load ptr, ptr %3, align 8, !tbaa !3
  %66 = getelementptr inbounds nuw %struct.VP8LBitEntropy, ptr %65, i32 0, i32 0
  %67 = load i64, ptr %66, align 8, !tbaa !51
  %68 = load i64, ptr %6, align 8, !tbaa !30
  %69 = icmp ult i64 %67, %68
  br i1 %69, label %70, label %72

70:                                               ; preds = %43
  %71 = load i64, ptr %6, align 8, !tbaa !30
  br label %76

72:                                               ; preds = %43
  %73 = load ptr, ptr %3, align 8, !tbaa !3
  %74 = getelementptr inbounds nuw %struct.VP8LBitEntropy, ptr %73, i32 0, i32 0
  %75 = load i64, ptr %74, align 8, !tbaa !51
  br label %76

76:                                               ; preds = %72, %70
  %77 = phi i64 [ %71, %70 ], [ %75, %72 ]
  store i64 %77, ptr %2, align 8
  store i32 1, ptr %5, align 4
  call void @llvm.lifetime.end.p0(i64 8, ptr %6) #7
  br label %78

78:                                               ; preds = %76, %22, %16
  call void @llvm.lifetime.end.p0(i64 8, ptr %4) #7
  %79 = load i64, ptr %2, align 8
  ret i64 %79
}

; Function Attrs: nounwind uwtable
define hidden i64 @VP8LBitsEntropy(ptr noundef %0, i32 noundef %1) #0 {
  %3 = alloca ptr, align 8
  %4 = alloca i32, align 4
  %5 = alloca %struct.VP8LBitEntropy, align 8
  store ptr %0, ptr %3, align 8, !tbaa !22
  store i32 %1, ptr %4, align 4, !tbaa !14
  call void @llvm.lifetime.start.p0(i64 24, ptr %5) #7
  %6 = load ptr, ptr %3, align 8, !tbaa !22
  %7 = load i32, ptr %4, align 4, !tbaa !14
  call void @VP8LBitsEntropyUnrefined(ptr noundef %6, i32 noundef %7, ptr noundef %5)
  %8 = call i64 @BitsEntropyRefine(ptr noundef %5)
  call void @llvm.lifetime.end.p0(i64 24, ptr %5) #7
  ret i64 %8
}