; Function Attrs: nounwind uwtable
define hidden i64 @VP8LBitsEntropy(ptr noundef %0, i32 noundef %1) local_unnamed_addr #0 {
  %3 = alloca %struct.VP8LBitEntropy, align 8
  call void @llvm.lifetime.start.p0(i64 24, ptr nonnull %3) #10
  call void @VP8LBitsEntropyUnrefined(ptr noundef %0, i32 noundef %1, ptr noundef nonnull %3) #10
  %4 = getelementptr inbounds nuw i8, ptr %3, i64 12
  %5 = load i32, ptr %4, align 4, !tbaa !33
  %6 = icmp slt i32 %5, 5
  br i1 %6, label %7, label %24

7:                                                ; preds = %2
  %8 = icmp slt i32 %5, 2
  br i1 %8, label %BitsEntropyRefine.exit, label %9

9:                                                ; preds = %7
  switch i32 %5, label %23 [
    i32 2, label %10
    i32 3, label %24
  ]

10:                                               ; preds = %9
  %11 = getelementptr inbounds nuw i8, ptr %3, i64 8
  %12 = load i32, ptr %11, align 8, !tbaa !35
  %13 = zext i32 %12 to i64
  %14 = mul nuw nsw i64 %13, 830472192
  %15 = load i64, ptr %3, align 8, !tbaa !36
  %16 = add i64 %14, %15
  %17 = icmp sgt i64 %16, -1
  br i1 %17, label %18, label %21

18:                                               ; preds = %10
  %19 = add nuw nsw i64 %16, 50
  %20 = udiv i64 %19, 100
  br label %BitsEntropyRefine.exit

21:                                               ; preds = %10
  %.neg8.i.i = sub i64 50, %16
  %22 = udiv i64 %.neg8.i.i, 100
  %.neg.i.i = sub nsw i64 0, %22
  br label %BitsEntropyRefine.exit

23:                                               ; preds = %9
  br label %24

24:                                               ; preds = %23, %9, %2
  %.0.i = phi i64 [ 700, %23 ], [ 950, %9 ], [ 627, %2 ]
  %25 = getelementptr inbounds nuw i8, ptr %3, i64 8
  %26 = load i32, ptr %25, align 8, !tbaa !35
  %27 = shl i32 %26, 1
  %28 = getelementptr inbounds nuw i8, ptr %3, i64 16
  %29 = load i32, ptr %28, align 8, !tbaa !37
  %30 = sub i32 %27, %29
  %31 = zext i32 %30 to i64
  %32 = shl nuw nsw i64 %.0.i, 23
  %33 = mul i64 %32, %31
  %34 = sub nuw nsw i64 1000, %.0.i
  %35 = load i64, ptr %3, align 8, !tbaa !36
  %36 = mul i64 %35, %34
  %37 = add i64 %33, %36
  %38 = icmp sgt i64 %37, -1
  br i1 %38, label %39, label %42

39:                                               ; preds = %24
  %40 = add nuw nsw i64 %37, 500
  %41 = udiv i64 %40, 1000
  br label %DivRound.exit22.i

42:                                               ; preds = %24
  %.neg8.i20.i = sub i64 500, %37
  %43 = udiv i64 %.neg8.i20.i, 1000
  %.neg.i21.i = sub nsw i64 0, %43
  br label %DivRound.exit22.i

DivRound.exit22.i:                                ; preds = %42, %39
  %44 = phi i64 [ %41, %39 ], [ %.neg.i21.i, %42 ]
  %..i = call i64 @llvm.umax.i64(i64 %35, i64 %44)
  br label %BitsEntropyRefine.exit

BitsEntropyRefine.exit:                           ; preds = %7, %18, %21, %DivRound.exit22.i
  %.016.i = phi i64 [ %..i, %DivRound.exit22.i ], [ 0, %7 ], [ %20, %18 ], [ %.neg.i.i, %21 ]
  call void @llvm.lifetime.end.p0(i64 24, ptr nonnull %3) #10
  ret i64 %.016.i
}